(dp0
S'small'
p1
ccopy_reg
_reconstructor
p2
(carcpy.sa.ParameterClasses
FuzzySmall
p3
c__builtin__
object
p4
Ntp5
Rp6
(dp7
S'___keyword'
p8
S'SMALL'
p9
sS'__midpoint'
p10
I3
sS'__spread'
p11
I5
sbsS'linear'
p12
g2
(carcpy.sa.ParameterClasses
FuzzyLinear
p13
g4
Ntp14
Rp15
(dp16
g8
S'LINEAR'
p17
sS'__maximum'
p18
I5
sS'__minimum'
p19
I4
sbs.